target datalayout = "e-m:e-p270:32:32-p271:32:32-p272:64:64-i64:64-i128:128-f80:128-n8:16:32:64-S128"
target triple = "x86_64-unknown-linux-gnu"

%"class.hermes::vm::PinnedHermesValue" = type { %"class.hermes::vm::HermesValue" }
%"class.hermes::vm::HermesValue" = type { i64 }
%"class.hermes::vm::Handle" = type { %"class.hermes::vm::HandleBase" }
%"class.hermes::vm::HandleBase" = type { ptr }
%"class.hermes::vm::CallResult" = type { i32, %"class.hermes::vm::HermesValue" }
%"class.hermes::vm::Handle.157" = type { %"class.hermes::vm::HandleBase" }
%"class.hermes::vm::CallResult.158" = type { %"class.hermes::vm::Handle" }
%"class.hermes::vm::NativeArgs" = type { %"class.std::reverse_iterator", i32, ptr }
%"class.std::reverse_iterator" = type { ptr }

@_ZN6hermes2vm15HandleRootOwner15undefinedValue_E = external global %"class.hermes::vm::PinnedHermesValue", align 8

; Function Attrs: mustprogress nounwind uwtable
define linkonce_odr hidden noundef i64 @_ZNK6hermes2vm11HermesValue7getETagEv(ptr noundef nonnull align 8 dereferenceable(8) %this) #0 comdat align 2 {
entry:
  %this.addr = alloca ptr, align 8
  store ptr %this, ptr %this.addr, align 8
  %this1 = load ptr, ptr %this.addr, align 8
  %raw_ = getelementptr inbounds %"class.hermes::vm::HermesValue", ptr %this1, i32 0, i32 0
  %0 = load i64, ptr %raw_, align 8
  %shr = ashr i64 %0, 47
  ret i64 %shr
}

; Function Attrs: mustprogress nounwind uwtable
define linkonce_odr hidden void @_ZNSt16reverse_iteratorIPKN6hermes2vm17PinnedHermesValueEEC2ES4_(ptr noundef nonnull align 8 dereferenceable(8) %this, ptr noundef %__x) unnamed_addr #0 comdat align 2 {
entry:
  %this.addr = alloca ptr, align 8
  %__x.addr = alloca ptr, align 8
  store ptr %this, ptr %this.addr, align 8
  store ptr %__x, ptr %__x.addr, align 8
  %this1 = load ptr, ptr %this.addr, align 8
  %current = getelementptr inbounds %"class.std::reverse_iterator", ptr %this1, i32 0, i32 0
  %0 = load ptr, ptr %__x.addr, align 8
  store ptr %0, ptr %current, align 8
  ret void
}

; Function Attrs: mustprogress nounwind uwtable
define linkonce_odr hidden noundef ptr @_ZNK6hermes2vm10HandleBase26unsafeGetPinnedHermesValueEv(ptr noundef nonnull align 8 dereferenceable(8) %this) #0 comdat align 2 {
entry:
  %this.addr = alloca ptr, align 8
  store ptr %this, ptr %this.addr, align 8
  %this1 = load ptr, ptr %this.addr, align 8
  %handle_ = getelementptr inbounds %"class.hermes::vm::HandleBase", ptr %this1, i32 0, i32 0
  %0 = load ptr, ptr %handle_, align 8
  ret ptr %0
}

; Function Attrs: mustprogress nounwind uwtable
define linkonce_odr hidden noundef zeroext i1 @_ZNK6hermes2vm11HermesValue11isUndefinedEv(ptr noundef nonnull align 8 dereferenceable(8) %this) #0 comdat align 2 {
entry:
  %this.addr = alloca ptr, align 8
  store ptr %this, ptr %this.addr, align 8
  %this1 = load ptr, ptr %this.addr, align 8
  %call = call noundef i64 @_ZNK6hermes2vm11HermesValue7getETagEv(ptr noundef nonnull align 8 dereferenceable(8) %this1)
  %cmp = icmp eq i64 %call, -12
  ret i1 %cmp
}

; Function Attrs: mustprogress nounwind uwtable
define linkonce_odr hidden void @_ZN6hermes2vm10HandleBaseC2EPKNS0_17PinnedHermesValueE(ptr noundef nonnull align 8 dereferenceable(8) %this, ptr noundef %valueAddr) unnamed_addr #0 comdat align 2 {
entry:
  %this.addr = alloca ptr, align 8
  %valueAddr.addr = alloca ptr, align 8
  store ptr %this, ptr %this.addr, align 8
  store ptr %valueAddr, ptr %valueAddr.addr, align 8
  %this1 = load ptr, ptr %this.addr, align 8
  %handle_ = getelementptr inbounds %"class.hermes::vm::HandleBase", ptr %this1, i32 0, i32 0
  %0 = load ptr, ptr %valueAddr.addr, align 8
  store ptr %0, ptr %handle_, align 8
  ret void
}

; Function Attrs: mustprogress nounwind uwtable
define linkonce_odr hidden noundef nonnull align 8 dereferenceable(8) ptr @_ZNKSt16reverse_iteratorIPKN6hermes2vm17PinnedHermesValueEEdeEv(ptr noundef nonnull align 8 dereferenceable(8) %this) #0 comdat align 2 {
entry:
  %this.addr = alloca ptr, align 8
  %__tmp = alloca ptr, align 8
  store ptr %this, ptr %this.addr, align 8
  %this1 = load ptr, ptr %this.addr, align 8
  %current = getelementptr inbounds %"class.std::reverse_iterator", ptr %this1, i32 0, i32 0
  %0 = load ptr, ptr %current, align 8
  store ptr %0, ptr %__tmp, align 8
  %1 = load ptr, ptr %__tmp, align 8
  %incdec.ptr = getelementptr inbounds %"class.hermes::vm::PinnedHermesValue", ptr %1, i32 -1
  store ptr %incdec.ptr, ptr %__tmp, align 8
  ret ptr %incdec.ptr
}

; Function Attrs: mustprogress nounwind uwtable
define linkonce_odr hidden void @_ZNKSt16reverse_iteratorIPKN6hermes2vm17PinnedHermesValueEEplEl(ptr noalias sret(%"class.std::reverse_iterator") align 8 %agg.result, ptr noundef nonnull align 8 dereferenceable(8) %this, i64 noundef %__n) #0 comdat align 2 {
entry:
  %result.ptr = alloca ptr, align 8
  %this.addr = alloca ptr, align 8
  %__n.addr = alloca i64, align 8
  store ptr %agg.result, ptr %result.ptr, align 8
  store ptr %this, ptr %this.addr, align 8
  store i64 %__n, ptr %__n.addr, align 8
  %this1 = load ptr, ptr %this.addr, align 8
  %current = getelementptr inbounds %"class.std::reverse_iterator", ptr %this1, i32 0, i32 0
  %0 = load ptr, ptr %current, align 8
  %1 = load i64, ptr %__n.addr, align 8
  %idx.neg = sub i64 0, %1
  %add.ptr = getelementptr inbounds %"class.hermes::vm::PinnedHermesValue", ptr %0, i64 %idx.neg
  call void @_ZNSt16reverse_iteratorIPKN6hermes2vm17PinnedHermesValueEEC2ES4_(ptr noundef nonnull align 8 dereferenceable(8) %agg.result, ptr noundef %add.ptr) #10
  ret void
}

; Function Attrs: mustprogress nounwind uwtable
define linkonce_odr hidden void @_ZNSt16reverse_iteratorIPKN6hermes2vm17PinnedHermesValueEEC2ERKS5_(ptr noundef nonnull align 8 dereferenceable(8) %this, ptr noundef nonnull align 8 dereferenceable(8) %__x) unnamed_addr #0 comdat align 2 {
entry:
  %this.addr = alloca ptr, align 8
  %__x.addr = alloca ptr, align 8
  store ptr %this, ptr %this.addr, align 8
  store ptr %__x, ptr %__x.addr, align 8
  %this1 = load ptr, ptr %this.addr, align 8
  %current = getelementptr inbounds %"class.std::reverse_iterator", ptr %this1, i32 0, i32 0
  %0 = load ptr, ptr %__x.addr, align 8
  %current2 = getelementptr inbounds %"class.std::reverse_iterator", ptr %0, i32 0, i32 0
  %1 = load ptr, ptr %current2, align 8
  store ptr %1, ptr %current, align 8
  ret void
}

; Function Attrs: mustprogress nounwind uwtable
define linkonce_odr hidden noundef ptr @_ZNK6hermes2vm10HandleBase9handleRefEv(ptr noundef nonnull align 8 dereferenceable(8) %this) #0 comdat align 2 {
entry:
  %this.addr = alloca ptr, align 8
  store ptr %this, ptr %this.addr, align 8
  %this1 = load ptr, ptr %this.addr, align 8
  %handle_ = getelementptr inbounds %"class.hermes::vm::HandleBase", ptr %this1, i32 0, i32 0
  %0 = load ptr, ptr %handle_, align 8
  ret ptr %0
}

; Function Attrs: mustprogress nounwind uwtable
define linkonce_odr hidden noundef nonnull align 8 dereferenceable(8) ptr @_ZN6hermes2vm10CallResultINS0_6HandleINS0_8JSObjectEEELNS0_6detail20CallResultSpecializeE4EE8getValueEv(ptr noundef nonnull align 8 dereferenceable(8) %this) #0 comdat align 2 {
entry:
  %this.addr = alloca ptr, align 8
  store ptr %this, ptr %this.addr, align 8
  %this1 = load ptr, ptr %this.addr, align 8
  %valueOrStatus_ = getelementptr inbounds %"class.hermes::vm::CallResult.158", ptr %this1, i32 0, i32 0
  ret ptr %valueOrStatus_
}

; Function Attrs: mustprogress nounwind uwtable
define linkonce_odr hidden noundef i32 @_ZNK6hermes2vm10CallResultINS0_6HandleINS0_8JSObjectEEELNS0_6detail20CallResultSpecializeE4EE9getStatusEv(ptr noundef nonnull align 8 dereferenceable(8) %this) #0 comdat align 2 {
entry:
  %this.addr = alloca ptr, align 8
  store ptr %this, ptr %this.addr, align 8
  %this1 = load ptr, ptr %this.addr, align 8
  %valueOrStatus_ = getelementptr inbounds %"class.hermes::vm::CallResult.158", ptr %this1, i32 0, i32 0
  %call = call noundef ptr @_ZNK6hermes2vm10HandleBase26unsafeGetPinnedHermesValueEv(ptr noundef nonnull align 8 dereferenceable(8) %valueOrStatus_)
  %0 = ptrtoint ptr %call to i64
  %cmp = icmp eq i64 %0, -1
  %cond = select i1 %cmp, i32 0, i32 1
  ret i32 %cond
}

; Function Attrs: mustprogress nounwind uwtable
define linkonce_odr hidden noundef zeroext i1 @_ZNK6hermes2vm10NativeArgs14isFunctionCallEv(ptr noundef nonnull align 8 dereferenceable(24) %this) #0 comdat align 2 {
entry:
  %this.addr = alloca ptr, align 8
  store ptr %this, ptr %this.addr, align 8
  %this1 = load ptr, ptr %this.addr, align 8
  %newTarget_ = getelementptr inbounds %"class.hermes::vm::NativeArgs", ptr %this1, i32 0, i32 2
  %0 = load ptr, ptr %newTarget_, align 8
  %call = call noundef zeroext i1 @_ZNK6hermes2vm11HermesValue11isUndefinedEv(ptr noundef nonnull align 8 dereferenceable(8) %0)
  ret i1 %call
}

; Function Attrs: mustprogress nounwind uwtable
define linkonce_odr hidden ptr @_ZN6hermes2vm15HandleRootOwner17getUndefinedValueEv() #0 comdat align 2 {
entry:
  %retval = alloca %"class.hermes::vm::Handle.157", align 8
  call void @_ZN6hermes2vm6HandleINS0_11HermesValueEEC2EPKNS0_17PinnedHermesValueE(ptr noundef nonnull align 8 dereferenceable(8) %retval, ptr noundef @_ZN6hermes2vm15HandleRootOwner15undefinedValue_E)
  %coerce.dive = getelementptr inbounds %"class.hermes::vm::Handle.157", ptr %retval, i32 0, i32 0
  %coerce.dive1 = getelementptr inbounds %"class.hermes::vm::HandleBase", ptr %coerce.dive, i32 0, i32 0
  %0 = load ptr, ptr %coerce.dive1, align 8
  ret ptr %0
}

; Function Attrs: mustprogress nounwind uwtable
define linkonce_odr hidden void @_ZN6hermes2vm6HandleINS0_11HermesValueEEC2EPKNS0_17PinnedHermesValueE(ptr noundef nonnull align 8 dereferenceable(8) %this, ptr noundef %valueAddr) unnamed_addr #0 comdat align 2 {
entry:
  %this.addr = alloca ptr, align 8
  %valueAddr.addr = alloca ptr, align 8
  store ptr %this, ptr %this.addr, align 8
  store ptr %valueAddr, ptr %valueAddr.addr, align 8
  %this1 = load ptr, ptr %this.addr, align 8
  %0 = load ptr, ptr %valueAddr.addr, align 8
  call void @_ZN6hermes2vm10HandleBaseC2EPKNS0_17PinnedHermesValueE(ptr noundef nonnull align 8 dereferenceable(8) %this1, ptr noundef %0)
  ret void
}

; Function Attrs: mustprogress nounwind uwtable
define linkonce_odr hidden noundef nonnull align 8 dereferenceable(8) ptr @_ZNKSt16reverse_iteratorIPKN6hermes2vm17PinnedHermesValueEEixEl(ptr noundef nonnull align 8 dereferenceable(8) %this, i64 noundef %__n) #0 comdat align 2 {
entry:
  %this.addr = alloca ptr, align 8
  %__n.addr = alloca i64, align 8
  %ref.tmp = alloca %"class.std::reverse_iterator", align 8
  store ptr %this, ptr %this.addr, align 8
  store i64 %__n, ptr %__n.addr, align 8
  %this1 = load ptr, ptr %this.addr, align 8
  %0 = load i64, ptr %__n.addr, align 8
  call void @_ZNKSt16reverse_iteratorIPKN6hermes2vm17PinnedHermesValueEEplEl(ptr sret(%"class.std::reverse_iterator") align 8 %ref.tmp, ptr noundef nonnull align 8 dereferenceable(8) %this1, i64 noundef %0)
  %call = call noundef nonnull align 8 dereferenceable(8) ptr @_ZNKSt16reverse_iteratorIPKN6hermes2vm17PinnedHermesValueEEdeEv(ptr noundef nonnull align 8 dereferenceable(8) %ref.tmp)
  ret ptr %call
}

; Function Attrs: mustprogress nounwind uwtable
define linkonce_odr hidden void @_ZNK6hermes2vm10NativeArgs5beginEv(ptr noalias sret(%"class.std::reverse_iterator") align 8 %agg.result, ptr noundef nonnull align 8 dereferenceable(24) %this) #0 comdat align 2 {
entry:
  %result.ptr = alloca ptr, align 8
  %this.addr = alloca ptr, align 8
  store ptr %agg.result, ptr %result.ptr, align 8
  store ptr %this, ptr %this.addr, align 8
  %this1 = load ptr, ptr %this.addr, align 8
  %firstArg_ = getelementptr inbounds %"class.hermes::vm::NativeArgs", ptr %this1, i32 0, i32 0
  call void @_ZNSt16reverse_iteratorIPKN6hermes2vm17PinnedHermesValueEEC2ERKS5_(ptr noundef nonnull align 8 dereferenceable(8) %agg.result, ptr noundef nonnull align 8 dereferenceable(8) %firstArg_) #10
  ret void
}

; Function Attrs: mustprogress nounwind uwtable
define linkonce_odr hidden void @_ZN6hermes2vm10CallResultINS0_11HermesValueELNS0_6detail20CallResultSpecializeE2EEC2ES2_(ptr noundef nonnull align 8 dereferenceable(16) %this, i64 %value.coerce) unnamed_addr #0 comdat align 2 {
entry:
  %value = alloca %"class.hermes::vm::HermesValue", align 8
  %this.addr = alloca ptr, align 8
  %coerce.dive = getelementptr inbounds %"class.hermes::vm::HermesValue", ptr %value, i32 0, i32 0
  store i64 %value.coerce, ptr %coerce.dive, align 8
  store ptr %this, ptr %this.addr, align 8
  %this1 = load ptr, ptr %this.addr, align 8
  %status_ = getelementptr inbounds %"class.hermes::vm::CallResult", ptr %this1, i32 0, i32 0
  store i32 1, ptr %status_, align 8
  %storage_2 = getelementptr inbounds %"class.hermes::vm::CallResult", ptr %this1, i32 0, i32 1
  call void @llvm.memcpy.p0.p0.i64(ptr align 8 %storage_2, ptr align 8 %value, i64 8, i1 false)
  ret void
}

; Function Attrs: mustprogress nounwind uwtable
define linkonce_odr hidden i64 @_ZNK6hermes2vm10HandleBase14getHermesValueEv(ptr noundef nonnull align 8 dereferenceable(8) %this) #0 comdat align 2 {
entry:
  %retval = alloca %"class.hermes::vm::HermesValue", align 8
  %this.addr = alloca ptr, align 8
  store ptr %this, ptr %this.addr, align 8
  %this1 = load ptr, ptr %this.addr, align 8
  %call = call noundef ptr @_ZNK6hermes2vm10HandleBase9handleRefEv(ptr noundef nonnull align 8 dereferenceable(8) %this1)
  call void @llvm.memcpy.p0.p0.i64(ptr align 8 %retval, ptr align 8 %call, i64 8, i1 false)
  %coerce.dive = getelementptr inbounds %"class.hermes::vm::HermesValue", ptr %retval, i32 0, i32 0
  %0 = load i64, ptr %coerce.dive, align 8
  ret i64 %0
}

; Function Attrs: mustprogress nounwind uwtable
define linkonce_odr hidden noundef ptr @_ZN6hermes2vm10CallResultINS0_6HandleINS0_8JSObjectEEELNS0_6detail20CallResultSpecializeE4EEptEv(ptr noundef nonnull align 8 dereferenceable(8) %this) #0 comdat align 2 {
entry:
  %this.addr = alloca ptr, align 8
  store ptr %this, ptr %this.addr, align 8
  %this1 = load ptr, ptr %this.addr, align 8
  %call = call noundef nonnull align 8 dereferenceable(8) ptr @_ZN6hermes2vm10CallResultINS0_6HandleINS0_8JSObjectEEELNS0_6detail20CallResultSpecializeE4EE8getValueEv(ptr noundef nonnull align 8 dereferenceable(8) %this1)
  ret ptr %call
}

; Function Attrs: mustprogress nounwind uwtable
define linkonce_odr hidden void @_ZN6hermes2vm10CallResultINS0_11HermesValueELNS0_6detail20CallResultSpecializeE2EEC2ENS0_15ExecutionStatusE(ptr noundef nonnull align 8 dereferenceable(16) %this, i32 noundef %status) unnamed_addr #0 comdat align 2 {
entry:
  %this.addr = alloca ptr, align 8
  %status.addr = alloca i32, align 4
  store ptr %this, ptr %this.addr, align 8
  store i32 %status, ptr %status.addr, align 4
  %this1 = load ptr, ptr %this.addr, align 8
  %status_ = getelementptr inbounds %"class.hermes::vm::CallResult", ptr %this1, i32 0, i32 0
  %0 = load i32, ptr %status.addr, align 4
  store i32 %0, ptr %status_, align 8
  ret void
}

; Function Attrs: mustprogress nounwind uwtable
define linkonce_odr hidden noundef zeroext i1 @_ZN6hermes2vmeqINS0_6HandleINS0_8JSObjectEEEEEbRKNS0_10CallResultIT_Xsr6detail23GetCallResultSpecializeIS6_EE5valueEEENS0_15ExecutionStatusE(ptr noundef nonnull align 8 dereferenceable(8) %lhs, i32 noundef %rhs) #0 comdat {
entry:
  %lhs.addr = alloca ptr, align 8
  %rhs.addr = alloca i32, align 4
  store ptr %lhs, ptr %lhs.addr, align 8
  store i32 %rhs, ptr %rhs.addr, align 4
  %0 = load ptr, ptr %lhs.addr, align 8
  %call = call noundef i32 @_ZNK6hermes2vm10CallResultINS0_6HandleINS0_8JSObjectEEELNS0_6detail20CallResultSpecializeE4EE9getStatusEv(ptr noundef nonnull align 8 dereferenceable(8) %0)
  %1 = load i32, ptr %rhs.addr, align 4
  %cmp = icmp eq i32 %call, %1
  ret i1 %cmp
}

; Function Attrs: mustprogress nounwind uwtable
define linkonce_odr hidden noundef zeroext i1 @_ZNK6hermes2vm10NativeArgs17isConstructorCallEv(ptr noundef nonnull align 8 dereferenceable(24) %this) #0 comdat align 2 {
entry:
  %this.addr = alloca ptr, align 8
  store ptr %this, ptr %this.addr, align 8
  %this1 = load ptr, ptr %this.addr, align 8
  %call = call noundef zeroext i1 @_ZNK6hermes2vm10NativeArgs14isFunctionCallEv(ptr noundef nonnull align 8 dereferenceable(24) %this1)
  %lnot = xor i1 %call, true
  ret i1 %lnot
}

; Function Attrs: mustprogress nounwind uwtable
define linkonce_odr hidden ptr @_ZNK6hermes2vm10NativeArgs12getArgHandleEj(ptr noundef nonnull align 8 dereferenceable(24) %this, i32 noundef %index) #0 comdat align 2 {
entry:
  %retval = alloca %"class.hermes::vm::Handle.157", align 8
  %this.addr = alloca ptr, align 8
  %index.addr = alloca i32, align 4
  %ref.tmp = alloca %"class.std::reverse_iterator", align 8
  store ptr %this, ptr %this.addr, align 8
  store i32 %index, ptr %index.addr, align 4
  %this1 = load ptr, ptr %this.addr, align 8
  %0 = load i32, ptr %index.addr, align 4
  %argCount_ = getelementptr inbounds %"class.hermes::vm::NativeArgs", ptr %this1, i32 0, i32 1
  %1 = load i32, ptr %argCount_, align 8
  %cmp = icmp ult i32 %0, %1
  br i1 %cmp, label %cond.true, label %cond.false

cond.true:                                        ; preds = %entry
  call void @_ZNK6hermes2vm10NativeArgs5beginEv(ptr sret(%"class.std::reverse_iterator") align 8 %ref.tmp, ptr noundef nonnull align 8 dereferenceable(24) %this1)
  %2 = load i32, ptr %index.addr, align 4
  %conv = zext i32 %2 to i64
  %call = call noundef nonnull align 8 dereferenceable(8) ptr @_ZNKSt16reverse_iteratorIPKN6hermes2vm17PinnedHermesValueEEixEl(ptr noundef nonnull align 8 dereferenceable(8) %ref.tmp, i64 noundef %conv)
  call void @_ZN6hermes2vm6HandleINS0_11HermesValueEEC2EPKNS0_17PinnedHermesValueE(ptr noundef nonnull align 8 dereferenceable(8) %retval, ptr noundef %call)
  br label %cond.end

cond.false:                                       ; preds = %entry
  %call2 = call ptr @_ZN6hermes2vm15HandleRootOwner17getUndefinedValueEv()
  %coerce.dive = getelementptr inbounds %"class.hermes::vm::Handle.157", ptr %retval, i32 0, i32 0
  %coerce.dive3 = getelementptr inbounds %"class.hermes::vm::HandleBase", ptr %coerce.dive, i32 0, i32 0
  store ptr %call2, ptr %coerce.dive3, align 8
  br label %cond.end

cond.end:                                         ; preds = %cond.false, %cond.true
  %coerce.dive4 = getelementptr inbounds %"class.hermes::vm::Handle.157", ptr %retval, i32 0, i32 0
  %coerce.dive5 = getelementptr inbounds %"class.hermes::vm::HandleBase", ptr %coerce.dive4, i32 0, i32 0
  %3 = load ptr, ptr %coerce.dive5, align 8
  ret ptr %3
}

; Function Attrs: mustprogress nounwind uwtable
define hidden { i32, i64 } @_ZN6hermes2vm17regExpConstructorEPvRNS0_7RuntimeENS0_10NativeArgsE(ptr noundef %0, ptr noundef nonnull align 8 dereferenceable(9832) %runtime, ptr noundef %args) #0 {
entry:
  %retval = alloca %"class.hermes::vm::CallResult", align 8
  %.addr = alloca ptr, align 8
  %runtime.addr = alloca ptr, align 8
  %args.indirect_addr = alloca ptr, align 8
  %pattern = alloca %"class.hermes::vm::Handle.157", align 8
  %flags = alloca %"class.hermes::vm::Handle.157", align 8
  %regExpRes = alloca %"class.hermes::vm::CallResult.158", align 8
  %agg.tmp = alloca %"class.hermes::vm::Handle.157", align 8
  %agg.tmp5 = alloca %"class.hermes::vm::Handle.157", align 8
  %agg.tmp16 = alloca %"class.hermes::vm::HermesValue", align 8
  store ptr %0, ptr %.addr, align 8
  store ptr %runtime, ptr %runtime.addr, align 8
  store ptr %args, ptr %args.indirect_addr, align 8
  %call = call ptr @_ZNK6hermes2vm10NativeArgs12getArgHandleEj(ptr noundef nonnull align 8 dereferenceable(24) %args, i32 noundef 0)
  %coerce.dive = getelementptr inbounds %"class.hermes::vm::Handle.157", ptr %pattern, i32 0, i32 0
  %coerce.dive1 = getelementptr inbounds %"class.hermes::vm::HandleBase", ptr %coerce.dive, i32 0, i32 0
  store ptr %call, ptr %coerce.dive1, align 8
  %call2 = call ptr @_ZNK6hermes2vm10NativeArgs12getArgHandleEj(ptr noundef nonnull align 8 dereferenceable(24) %args, i32 noundef 1)
  %coerce.dive3 = getelementptr inbounds %"class.hermes::vm::Handle.157", ptr %flags, i32 0, i32 0
  %coerce.dive4 = getelementptr inbounds %"class.hermes::vm::HandleBase", ptr %coerce.dive3, i32 0, i32 0
  store ptr %call2, ptr %coerce.dive4, align 8
  %1 = load ptr, ptr %runtime.addr, align 8
  call void @llvm.memcpy.p0.p0.i64(ptr align 8 %agg.tmp, ptr align 8 %pattern, i64 8, i1 false)
  call void @llvm.memcpy.p0.p0.i64(ptr align 8 %agg.tmp5, ptr align 8 %flags, i64 8, i1 false)
  %call6 = call noundef zeroext i1 @_ZNK6hermes2vm10NativeArgs17isConstructorCallEv(ptr noundef nonnull align 8 dereferenceable(24) %args)
  %coerce.dive7 = getelementptr inbounds %"class.hermes::vm::Handle.157", ptr %agg.tmp, i32 0, i32 0
  %coerce.dive8 = getelementptr inbounds %"class.hermes::vm::HandleBase", ptr %coerce.dive7, i32 0, i32 0
  %2 = load ptr, ptr %coerce.dive8, align 8
  %coerce.dive9 = getelementptr inbounds %"class.hermes::vm::Handle.157", ptr %agg.tmp5, i32 0, i32 0
  %coerce.dive10 = getelementptr inbounds %"class.hermes::vm::HandleBase", ptr %coerce.dive9, i32 0, i32 0
  %3 = load ptr, ptr %coerce.dive10, align 8
  %call11 = call ptr @_ZN6hermes2vmL25regExpConstructorInternalERNS0_7RuntimeENS0_6HandleINS0_11HermesValueEEES5_b(ptr noundef nonnull align 8 dereferenceable(9832) %1, ptr %2, ptr %3, i1 noundef zeroext %call6)
  %coerce.dive12 = getelementptr inbounds %"class.hermes::vm::CallResult.158", ptr %regExpRes, i32 0, i32 0
  %coerce.dive13 = getelementptr inbounds %"class.hermes::vm::Handle", ptr %coerce.dive12, i32 0, i32 0
  %coerce.dive14 = getelementptr inbounds %"class.hermes::vm::HandleBase", ptr %coerce.dive13, i32 0, i32 0
  store ptr %call11, ptr %coerce.dive14, align 8
  %call15 = call noundef zeroext i1 @_ZN6hermes2vmeqINS0_6HandleINS0_8JSObjectEEEEEbRKNS0_10CallResultIT_Xsr6detail23GetCallResultSpecializeIS6_EE5valueEEENS0_15ExecutionStatusE(ptr noundef nonnull align 8 dereferenceable(8) %regExpRes, i32 noundef 0)
  br i1 %call15, label %if.then, label %if.end

if.then:                                          ; preds = %entry
  call void @_ZN6hermes2vm10CallResultINS0_11HermesValueELNS0_6detail20CallResultSpecializeE2EEC2ENS0_15ExecutionStatusE(ptr noundef nonnull align 8 dereferenceable(16) %retval, i32 noundef 0)
  br label %return

if.end:                                           ; preds = %entry
  %call17 = call noundef ptr @_ZN6hermes2vm10CallResultINS0_6HandleINS0_8JSObjectEEELNS0_6detail20CallResultSpecializeE4EEptEv(ptr noundef nonnull align 8 dereferenceable(8) %regExpRes)
  %call18 = call i64 @_ZNK6hermes2vm10HandleBase14getHermesValueEv(ptr noundef nonnull align 8 dereferenceable(8) %call17)
  %coerce.dive19 = getelementptr inbounds %"class.hermes::vm::HermesValue", ptr %agg.tmp16, i32 0, i32 0
  store i64 %call18, ptr %coerce.dive19, align 8
  %coerce.dive20 = getelementptr inbounds %"class.hermes::vm::HermesValue", ptr %agg.tmp16, i32 0, i32 0
  %4 = load i64, ptr %coerce.dive20, align 8
  call void @_ZN6hermes2vm10CallResultINS0_11HermesValueELNS0_6detail20CallResultSpecializeE2EEC2ES2_(ptr noundef nonnull align 8 dereferenceable(16) %retval, i64 %4)
  br label %return

return:                                           ; preds = %if.end, %if.then
  %5 = load { i32, i64 }, ptr %retval, align 8
  ret { i32, i64 } %5
}