; Function Attrs: mustprogress nounwind uwtable
define hidden { i32, i64 } @_ZN6hermes2vm17regExpConstructorEPvRNS0_7RuntimeENS0_10NativeArgsE(ptr readnone captures(none) %0, ptr noundef nonnull align 8 dereferenceable(9832) %runtime, ptr noundef readonly captures(none) %args) #0 {
entry:
  %argCount_.i = getelementptr inbounds nuw i8, ptr %args, i64 8
  %1 = load i32, ptr %argCount_.i, align 8
  %cmp.i.not = icmp eq i32 %1, 0
  %2 = load ptr, ptr %args, align 8
  %incdec.ptr.i.i.i = getelementptr inbounds i8, ptr %2, i64 -8
  %retval.sroa.0.0.i = select i1 %cmp.i.not, ptr @_ZN6hermes2vm15HandleRootOwner15undefinedValue_E, ptr %incdec.ptr.i.i.i
  %cmp.i2 = icmp ugt i32 %1, 1
  %incdec.ptr.i.i.i3 = getelementptr inbounds i8, ptr %2, i64 -16
  %retval.sroa.0.0.i4 = select i1 %cmp.i2, ptr %incdec.ptr.i.i.i3, ptr @_ZN6hermes2vm15HandleRootOwner15undefinedValue_E
  %newTarget_.i.i = getelementptr inbounds nuw i8, ptr %args, i64 16
  %3 = load ptr, ptr %newTarget_.i.i, align 8
  %4 = load i64, ptr %3, align 8
  %shr.i.mask.i.i.i = and i64 %4, -140737488355328
  %cmp.i.i.i = icmp ne i64 %shr.i.mask.i.i.i, -1688849860263936
  %call11 = tail call fastcc ptr @_ZN6hermes2vmL25regExpConstructorInternalERNS0_7RuntimeENS0_6HandleINS0_11HermesValueEEES5_b(ptr noundef nonnull align 8 dereferenceable(9832) %runtime, ptr nonnull %retval.sroa.0.0.i, ptr nonnull %retval.sroa.0.0.i4, i1 noundef zeroext %cmp.i.i.i)
  %cmp.i.i.not = icmp eq ptr %call11, inttoptr (i64 -1 to ptr)
  br i1 %cmp.i.i.not, label %return, label %if.end

if.end:                                           ; preds = %entry
  %retval.sroa.0.0.copyload.i = load i64, ptr %call11, align 8
  br label %return

return:                                           ; preds = %entry, %if.end
  %retval.sroa.0.0 = phi i32 [ 1, %if.end ], [ 0, %entry ]
  %retval.sroa.3.0 = phi i64 [ %retval.sroa.0.0.copyload.i, %if.end ], [ undef, %entry ]
  %.fca.0.insert = insertvalue { i32, i64 } poison, i32 %retval.sroa.0.0, 0
  %.fca.1.insert = insertvalue { i32, i64 } %.fca.0.insert, i64 %retval.sroa.3.0, 1
  ret { i32, i64 } %.fca.1.insert
}